; Function Attrs: mustprogress nofree norecurse nosync nounwind willreturn memory(argmem: read) uwtable
define internal range(i32 -1, 2) i32 @midx_pack_order_cmp(ptr noundef readonly captures(none) %0, ptr noundef readonly captures(none) %1) #13 {
  %3 = getelementptr inbounds nuw i8, ptr %0, i64 4
  %4 = load i32, ptr %3, align 4, !tbaa !109
  %5 = getelementptr inbounds nuw i8, ptr %1, i64 4
  %6 = load i32, ptr %5, align 4, !tbaa !109
  %7 = icmp ult i32 %4, %6
  br i1 %7, label %18, label %8

8:                                                ; preds = %2
  %9 = icmp ugt i32 %4, %6
  br i1 %9, label %18, label %10

10:                                               ; preds = %8
  %11 = getelementptr inbounds nuw i8, ptr %0, i64 8
  %12 = load i64, ptr %11, align 8, !tbaa !110
  %13 = getelementptr inbounds nuw i8, ptr %1, i64 8
  %14 = load i64, ptr %13, align 8, !tbaa !110
  %15 = icmp slt i64 %12, %14
  br i1 %15, label %18, label %16

16:                                               ; preds = %10
  %17 = icmp sgt i64 %12, %14
  %. = zext i1 %17 to i32
  br label %18

18:                                               ; preds = %16, %10, %8, %2
  %.0 = phi i32 [ -1, %2 ], [ 1, %8 ], [ -1, %10 ], [ %., %16 ]
  ret i32 %.0
}